; ModuleID = '57/2034.c'
source_filename = "57/2034.c"
target datalayout = "e-m:e-p270:32:32-p271:32:32-p272:64:64-i64:64-f80:128-n8:16:32:64-S128"
target triple = "x86_64-pc-linux-gnu"

@.str = private unnamed_addr constant [3 x i8] c"%d\00", align 1
@.str.1 = private unnamed_addr constant [3 x i8] c"%s\00", align 1
@.str.2 = private unnamed_addr constant [3 x i8] c"%c\00", align 1
@.str.3 = private unnamed_addr constant [2 x i8] c"\0A\00", align 1

; Function Attrs: noinline nounwind uwtable
define dso_local i32 @main(i32 %0, i8** %1) #0 {
  %3 = alloca i32, align 4
  %4 = alloca i32, align 4
  %5 = alloca i8**, align 8
  %6 = alloca i32, align 4
  %7 = alloca i32, align 4
  %8 = alloca i32, align 4
  %9 = alloca i32, align 4
  %10 = alloca i32, align 4
  %11 = alloca [50 x i8], align 16
  store i32 0, i32* %3, align 4
  store i32 %0, i32* %4, align 4
  store i8** %1, i8*** %5, align 8
  %12 = call i32 (i8*, ...) @__isoc99_scanf(i8* getelementptr inbounds ([3 x i8], [3 x i8]* @.str, i64 0, i64 0), i32* %6)
  store i32 1, i32* %8, align 4
  br label %13

13:                                               ; preds = %67, %2
  %14 = load i32, i32* %8, align 4
  %15 = load i32, i32* %6, align 4
  %16 = icmp sle i32 %14, %15
  br i1 %16, label %17, label %70

17:                                               ; preds = %13
  %18 = getelementptr inbounds [50 x i8], [50 x i8]* %11, i64 0, i64 0
  %19 = call i32 (i8*, ...) @__isoc99_scanf(i8* getelementptr inbounds ([3 x i8], [3 x i8]* @.str.1, i64 0, i64 0), i8* %18)
  %20 = getelementptr inbounds [50 x i8], [50 x i8]* %11, i64 0, i64 0
  %21 = call i64 @strlen(i8* %20) #3
  %22 = trunc i64 %21 to i32
  store i32 %22, i32* %10, align 4
  %23 = load i32, i32* %10, align 4
  %24 = sub nsw i32 %23, 1
  %25 = sext i32 %24 to i64
  %26 = getelementptr inbounds [50 x i8], [50 x i8]* %11, i64 0, i64 %25
  %27 = load i8, i8* %26, align 1
  %28 = sext i8 %27 to i32
  %29 = icmp eq i32 %28, 103
  br i1 %29, label %30, label %48

30:                                               ; preds = %17
  store i32 0, i32* %9, align 4
  br label %31

31:                                               ; preds = %43, %30
  %32 = load i32, i32* %9, align 4
  %33 = load i32, i32* %10, align 4
  %34 = sub nsw i32 %33, 4
  %35 = icmp sle i32 %32, %34
  br i1 %35, label %36, label %46

36:                                               ; preds = %31
  %37 = load i32, i32* %9, align 4
  %38 = sext i32 %37 to i64
  %39 = getelementptr inbounds [50 x i8], [50 x i8]* %11, i64 0, i64 %38
  %40 = load i8, i8* %39, align 1
  %41 = sext i8 %40 to i32
  %42 = call i32 (i8*, ...) @printf(i8* getelementptr inbounds ([3 x i8], [3 x i8]* @.str.2, i64 0, i64 0), i32 %41)
  br label %43

43:                                               ; preds = %36
  %44 = load i32, i32* %9, align 4
  %45 = add nsw i32 %44, 1
  store i32 %45, i32* %9, align 4
  br label %31

46:                                               ; preds = %31
  %47 = call i32 (i8*, ...) @printf(i8* getelementptr inbounds ([2 x i8], [2 x i8]* @.str.3, i64 0, i64 0))
  br label %66

48:                                               ; preds = %17
  store i32 0, i32* %9, align 4
  br label %49

49:                                               ; preds = %61, %48
  %50 = load i32, i32* %9, align 4
  %51 = load i32, i32* %10, align 4
  %52 = sub nsw i32 %51, 3
  %53 = icmp sle i32 %50, %52
  br i1 %53, label %54, label %64

54:                                               ; preds = %49
  %55 = load i32, i32* %9, align 4
  %56 = sext i32 %55 to i64
  %57 = getelementptr inbounds [50 x i8], [50 x i8]* %11, i64 0, i64 %56
  %58 = load i8, i8* %57, align 1
  %59 = sext i8 %58 to i32
  %60 = call i32 (i8*, ...) @printf(i8* getelementptr inbounds ([3 x i8], [3 x i8]* @.str.2, i64 0, i64 0), i32 %59)
  br label %61

61:                                               ; preds = %54
  %62 = load i32, i32* %9, align 4
  %63 = add nsw i32 %62, 1
  store i32 %63, i32* %9, align 4
  br label %49

64:                                               ; preds = %49
  %65 = call i32 (i8*, ...) @printf(i8* getelementptr inbounds ([2 x i8], [2 x i8]* @.str.3, i64 0, i64 0))
  br label %66

66:                                               ; preds = %64, %46
  br label %67

67:                                               ; preds = %66
  %68 = load i32, i32* %8, align 4
  %69 = add nsw i32 %68, 1
  store i32 %69, i32* %8, align 4
  br label %13

70:                                               ; preds = %13
  ret i32 0
}

declare dso_local i32 @__isoc99_scanf(i8*, ...) #1

; Function Attrs: nounwind readonly
declare dso_local i64 @strlen(i8*) #2

declare dso_local i32 @printf(i8*, ...) #1


!llvm.module.flags = !{!0}
!llvm.ident = !{!1}

!0 = !{i32 1, !"wchar_size", i32 4}
!1 = !{!"clang version 10.0.0-4ubuntu1 "}
